#include <math.h>
#include <stdio.h>
#include <stdlib.h>
#include <string.h>

int main()
{
    int a[20000];
	int i,j,n,k;
    k=0;
    scanf("%d",&n);
	
	n=n-1;
	for(i=0;i<=n;i++)
	   scanf("%d",&a[i]);

	for(i=0;i<n;i++)
	{
	  for(j=i+1;j<=n;j++)
		  if(a[j]==a[i]) a[j]=0;
	}
    
    printf("%d",a[0]);
	    for(i=1;i<=n;i++)
		{
			if(a[i]!=0) 
			{
			   printf(" %d",a[i]);
			}
		}

	return 0;
}